target datalayout = "e-m:e-p270:32:32-p271:32:32-p272:64:64-i64:64-i128:128-f80:128-n8:16:32:64-S128"
target triple = "x86_64-pc-linux-gnu"

%struct.cli_hashset = type { ptr, ptr, ptr, i32, i32, i32, i32 }

@.str.22 = private unnamed_addr constant [48 x i8] c"hashtab.c: Unable to allocate memory for array\0A\00", align 1

; Function Attrs: nounwind uwtable
define i64 @cli_hashset_toarray(ptr noundef %0, ptr noundef %1) #0 {
  %3 = alloca i64, align 8
  %4 = alloca ptr, align 8
  %5 = alloca ptr, align 8
  %6 = alloca i64, align 8
  %7 = alloca i64, align 8
  %8 = alloca ptr, align 8
  store ptr %0, ptr %4, align 8
  store ptr %1, ptr %5, align 8
  %9 = load ptr, ptr %5, align 8
  %10 = icmp ne ptr %9, null
  br i1 %10, label %12, label %11

11:                                               ; preds = %2
  store i64 -1, ptr %3, align 8
  br label %71

12:                                               ; preds = %2
  %13 = load ptr, ptr %4, align 8
  %14 = getelementptr inbounds %struct.cli_hashset, ptr %13, i32 0, i32 5
  %15 = load i32, ptr %14, align 8
  %16 = zext i32 %15 to i64
  %17 = mul i64 %16, 4
  %18 = call ptr @cli_max_malloc(i64 noundef %17)
  store ptr %18, ptr %8, align 8
  %19 = load ptr, ptr %5, align 8
  store ptr %18, ptr %19, align 8
  %20 = load ptr, ptr %8, align 8
  %21 = icmp ne ptr %20, null
  br i1 %21, label %23, label %22

22:                                               ; preds = %12
  call void (ptr, ...) @cli_errmsg(ptr noundef @.str.22)
  store i64 -1, ptr %3, align 8
  br label %71

23:                                               ; preds = %12
  store i64 0, ptr %6, align 8
  store i64 0, ptr %7, align 8
  br label %24

24:                                               ; preds = %66, %23
  %25 = load i64, ptr %6, align 8
  %26 = load ptr, ptr %4, align 8
  %27 = getelementptr inbounds %struct.cli_hashset, ptr %26, i32 0, i32 3
  %28 = load i32, ptr %27, align 8
  %29 = zext i32 %28 to i64
  %30 = icmp ult i64 %25, %29
  br i1 %30, label %31, label %38

31:                                               ; preds = %24
  %32 = load i64, ptr %7, align 8
  %33 = load ptr, ptr %4, align 8
  %34 = getelementptr inbounds %struct.cli_hashset, ptr %33, i32 0, i32 5
  %35 = load i32, ptr %34, align 8
  %36 = zext i32 %35 to i64
  %37 = icmp ult i64 %32, %36
  br label %38

38:                                               ; preds = %31, %24
  %39 = phi i1 [ false, %24 ], [ %37, %31 ]
  br i1 %39, label %40, label %69

40:                                               ; preds = %38
  %41 = load ptr, ptr %4, align 8
  %42 = getelementptr inbounds %struct.cli_hashset, ptr %41, i32 0, i32 1
  %43 = load ptr, ptr %42, align 8
  %44 = load i64, ptr %6, align 8
  %45 = lshr i64 %44, 5
  %46 = getelementptr inbounds i32, ptr %43, i64 %45
  %47 = load i32, ptr %46, align 4
  %48 = zext i32 %47 to i64
  %49 = load i64, ptr %6, align 8
  %50 = and i64 %49, 31
  %51 = shl i64 1, %50
  %52 = and i64 %48, %51
  %53 = icmp ne i64 %52, 0
  br i1 %53, label %54, label %65

54:                                               ; preds = %40
  %55 = load ptr, ptr %4, align 8
  %56 = getelementptr inbounds %struct.cli_hashset, ptr %55, i32 0, i32 0
  %57 = load ptr, ptr %56, align 8
  %58 = load i64, ptr %6, align 8
  %59 = getelementptr inbounds i32, ptr %57, i64 %58
  %60 = load i32, ptr %59, align 4
  %61 = load ptr, ptr %8, align 8
  %62 = load i64, ptr %7, align 8
  %63 = add i64 %62, 1
  store i64 %63, ptr %7, align 8
  %64 = getelementptr inbounds i32, ptr %61, i64 %62
  store i32 %60, ptr %64, align 4
  br label %65

65:                                               ; preds = %54, %40
  br label %66

66:                                               ; preds = %65
  %67 = load i64, ptr %6, align 8
  %68 = add i64 %67, 1
  store i64 %68, ptr %6, align 8
  br label %24

69:                                               ; preds = %38
  %70 = load i64, ptr %7, align 8
  store i64 %70, ptr %3, align 8
  br label %71

71:                                               ; preds = %69, %22, %11
  %72 = load i64, ptr %3, align 8
  ret i64 %72
}