; Function Attrs: nounwind uwtable
define i64 @cli_hashset_toarray(ptr nocapture noundef readonly %0, ptr noundef writeonly %1) local_unnamed_addr #0 {
  %.not = icmp eq ptr %1, null
  br i1 %.not, label %.critedge, label %3

3:                                                ; preds = %2
  %4 = getelementptr inbounds i8, ptr %0, i64 32
  %5 = load i32, ptr %4, align 8
  %6 = zext i32 %5 to i64
  %7 = shl nuw nsw i64 %6, 2
  %8 = tail call ptr @cli_max_malloc(i64 noundef %7) #18
  store ptr %8, ptr %1, align 8
  %.not21 = icmp eq ptr %8, null
  br i1 %.not21, label %12, label %.preheader

.preheader:                                       ; preds = %3
  %9 = getelementptr inbounds i8, ptr %0, i64 24
  %10 = load i32, ptr %9, align 8
  %.not27 = icmp eq i32 %10, 0
  br i1 %.not27, label %.critedge, label %.lr.ph

.lr.ph:                                           ; preds = %.preheader
  %11 = getelementptr inbounds i8, ptr %0, i64 8
  br label %13

12:                                               ; preds = %3
  tail call void (ptr, ...) @cli_errmsg(ptr noundef nonnull @.str.22) #18
  br label %.critedge

13:                                               ; preds = %.lr.ph, %33
  %14 = phi i32 [ %10, %.lr.ph ], [ %34, %33 ]
  %.01724 = phi i64 [ 0, %.lr.ph ], [ %.1, %33 ]
  %.01823 = phi i64 [ 0, %.lr.ph ], [ %35, %33 ]
  %15 = load i32, ptr %4, align 8
  %16 = zext i32 %15 to i64
  %17 = icmp ult i64 %.01724, %16
  br i1 %17, label %18, label %.critedge

18:                                               ; preds = %13
  %19 = load ptr, ptr %11, align 8
  %20 = lshr i64 %.01823, 5
  %21 = getelementptr inbounds i32, ptr %19, i64 %20
  %22 = load i32, ptr %21, align 4
  %23 = zext i32 %22 to i64
  %24 = and i64 %.01823, 31
  %25 = shl nuw nsw i64 1, %24
  %26 = and i64 %25, %23
  %.not22 = icmp eq i64 %26, 0
  br i1 %.not22, label %33, label %27

27:                                               ; preds = %18
  %28 = load ptr, ptr %0, align 8
  %29 = getelementptr inbounds i32, ptr %28, i64 %.01823
  %30 = load i32, ptr %29, align 4
  %31 = add nuw nsw i64 %.01724, 1
  %32 = getelementptr inbounds i32, ptr %8, i64 %.01724
  store i32 %30, ptr %32, align 4
  %.pre = load i32, ptr %9, align 8
  br label %33

33:                                               ; preds = %18, %27
  %34 = phi i32 [ %.pre, %27 ], [ %14, %18 ]
  %.1 = phi i64 [ %31, %27 ], [ %.01724, %18 ]
  %35 = add nuw nsw i64 %.01823, 1
  %36 = zext i32 %34 to i64
  %37 = icmp ult i64 %35, %36
  br i1 %37, label %13, label %.critedge

.critedge:                                        ; preds = %33, %13, %.preheader, %2, %12
  %.0 = phi i64 [ -1, %12 ], [ -1, %2 ], [ 0, %.preheader ], [ %.1, %33 ], [ %.01724, %13 ]
  ret i64 %.0
}